target datalayout = "e-m:e-p270:32:32-p271:32:32-p272:64:64-i64:64-i128:128-f80:128-n8:16:32:64-S128"
target triple = "x86_64-pc-linux-gnu"

%struct._object = type { %union.anon, ptr }
%union.anon = type { i64 }
%struct.anon = type { i32, i32 }
%struct.ElementObject = type { %struct._object, ptr, ptr, ptr, ptr, ptr }
%struct.ElementObjectExtra = type { ptr, i64, i64, ptr, [4 x ptr] }

@PyExc_IndexError = external global ptr, align 8
@.str.103 = private unnamed_addr constant [25 x i8] c"child index out of range\00", align 1

; Function Attrs: alwaysinline nounwind uwtable
define internal void @Py_INCREF(ptr noundef %0) #4 {
  %2 = alloca ptr, align 8
  %3 = alloca i32, align 4
  %4 = alloca i32, align 4
  store ptr %0, ptr %2, align 8, !tbaa !3
  call void @llvm.lifetime.start.p0(i64 4, ptr %3) #8
  %5 = load ptr, ptr %2, align 8, !tbaa !3
  %6 = getelementptr inbounds nuw %struct._object, ptr %5, i32 0, i32 0
  %7 = getelementptr inbounds nuw %struct.anon, ptr %6, i32 0, i32 0
  %8 = load i32, ptr %7, align 8, !tbaa !32
  store i32 %8, ptr %3, align 4, !tbaa !13
  %9 = load i32, ptr %3, align 4, !tbaa !13
  %10 = icmp slt i32 %9, 0
  br i1 %10, label %11, label %12

11:                                               ; preds = %1
  store i32 1, ptr %4, align 4
  br label %18

12:                                               ; preds = %1
  %13 = load i32, ptr %3, align 4, !tbaa !13
  %14 = add i32 %13, 1
  %15 = load ptr, ptr %2, align 8, !tbaa !3
  %16 = getelementptr inbounds nuw %struct._object, ptr %15, i32 0, i32 0
  %17 = getelementptr inbounds nuw %struct.anon, ptr %16, i32 0, i32 0
  store i32 %14, ptr %17, align 8, !tbaa !32
  store i32 0, ptr %4, align 4
  br label %18

18:                                               ; preds = %12, %11
  call void @llvm.lifetime.end.p0(i64 4, ptr %3) #8
  %19 = load i32, ptr %4, align 4
  switch i32 %19, label %21 [
    i32 0, label %20
    i32 1, label %20
  ]

20:                                               ; preds = %18, %18
  ret void

21:                                               ; preds = %18
  unreachable
}

; Function Attrs: inlinehint nounwind uwtable
define internal ptr @_Py_NewRef(ptr noundef %0) #3 {
  %2 = alloca ptr, align 8
  store ptr %0, ptr %2, align 8, !tbaa !3
  %3 = load ptr, ptr %2, align 8, !tbaa !3
  call void @Py_INCREF(ptr noundef %3)
  %4 = load ptr, ptr %2, align 8, !tbaa !3
  ret ptr %4
}

; Function Attrs: nounwind uwtable
define internal ptr @element_getitem(ptr noundef %0, i64 noundef %1) #0 {
  %3 = alloca ptr, align 8
  %4 = alloca ptr, align 8
  %5 = alloca i64, align 8
  %6 = alloca ptr, align 8
  %7 = alloca i32, align 4
  store ptr %0, ptr %4, align 8, !tbaa !3
  store i64 %1, ptr %5, align 8, !tbaa !30
  call void @llvm.lifetime.start.p0(i64 8, ptr %6) #8
  %8 = load ptr, ptr %4, align 8, !tbaa !3
  store ptr %8, ptr %6, align 8, !tbaa !8
  %9 = load ptr, ptr %6, align 8, !tbaa !8
  %10 = getelementptr inbounds nuw %struct.ElementObject, ptr %9, i32 0, i32 4
  %11 = load ptr, ptr %10, align 8, !tbaa !42
  %12 = icmp ne ptr %11, null
  br i1 %12, label %13, label %24

13:                                               ; preds = %2
  %14 = load i64, ptr %5, align 8, !tbaa !30
  %15 = icmp slt i64 %14, 0
  br i1 %15, label %24, label %16

16:                                               ; preds = %13
  %17 = load i64, ptr %5, align 8, !tbaa !30
  %18 = load ptr, ptr %6, align 8, !tbaa !8
  %19 = getelementptr inbounds nuw %struct.ElementObject, ptr %18, i32 0, i32 4
  %20 = load ptr, ptr %19, align 8, !tbaa !42
  %21 = getelementptr inbounds nuw %struct.ElementObjectExtra, ptr %20, i32 0, i32 1
  %22 = load i64, ptr %21, align 8, !tbaa !50
  %23 = icmp sge i64 %17, %22
  br i1 %23, label %24, label %26

24:                                               ; preds = %16, %13, %2
  %25 = load ptr, ptr @PyExc_IndexError, align 8, !tbaa !3
  call void @PyErr_SetString(ptr noundef %25, ptr noundef @.str.103)
  store ptr null, ptr %3, align 8
  store i32 1, ptr %7, align 4
  br label %36

26:                                               ; preds = %16
  %27 = load ptr, ptr %6, align 8, !tbaa !8
  %28 = getelementptr inbounds nuw %struct.ElementObject, ptr %27, i32 0, i32 4
  %29 = load ptr, ptr %28, align 8, !tbaa !42
  %30 = getelementptr inbounds nuw %struct.ElementObjectExtra, ptr %29, i32 0, i32 3
  %31 = load ptr, ptr %30, align 8, !tbaa !48
  %32 = load i64, ptr %5, align 8, !tbaa !30
  %33 = getelementptr ptr, ptr %31, i64 %32
  %34 = load ptr, ptr %33, align 8, !tbaa !3
  %35 = call ptr @_Py_NewRef(ptr noundef %34)
  store ptr %35, ptr %3, align 8
  store i32 1, ptr %7, align 4
  br label %36

36:                                               ; preds = %26, %24
  call void @llvm.lifetime.end.p0(i64 8, ptr %6) #8
  %37 = load ptr, ptr %3, align 8
  ret ptr %37
}