; Function Attrs: nounwind uwtable
define internal noundef ptr @element_getitem(ptr noundef readonly captures(none) %0, i64 noundef %1) #0 {
  %3 = getelementptr inbounds nuw i8, ptr %0, i64 40
  %4 = load ptr, ptr %3, align 8, !tbaa !37
  %5 = icmp eq ptr %4, null
  %6 = icmp slt i64 %1, 0
  %or.cond = or i1 %6, %5
  br i1 %or.cond, label %10, label %7

7:                                                ; preds = %2
  %8 = getelementptr inbounds nuw i8, ptr %4, i64 8
  %9 = load i64, ptr %8, align 8, !tbaa !42
  %.not = icmp slt i64 %1, %9
  br i1 %.not, label %12, label %10

10:                                               ; preds = %7, %2
  %11 = load ptr, ptr @PyExc_IndexError, align 8, !tbaa !20
  tail call void @PyErr_SetString(ptr noundef %11, ptr noundef nonnull @.str.103) #12
  br label %_Py_NewRef.exit

12:                                               ; preds = %7
  %13 = getelementptr inbounds nuw i8, ptr %4, i64 24
  %14 = load ptr, ptr %13, align 8, !tbaa !39
  %15 = getelementptr ptr, ptr %14, i64 %1
  %16 = load ptr, ptr %15, align 8, !tbaa !20
  %17 = load i32, ptr %16, align 8, !tbaa !21
  %18 = icmp slt i32 %17, 0
  br i1 %18, label %_Py_NewRef.exit, label %19

19:                                               ; preds = %12
  %20 = add nuw i32 %17, 1
  store i32 %20, ptr %16, align 8, !tbaa !21
  br label %_Py_NewRef.exit

_Py_NewRef.exit:                                  ; preds = %19, %12, %10
  %.0 = phi ptr [ null, %10 ], [ %16, %12 ], [ %16, %19 ]
  ret ptr %.0
}